target datalayout = "e-m:e-p270:32:32-p271:32:32-p272:64:64-i64:64-i128:128-f80:128-n8:16:32:64-S128"
target triple = "x86_64-pc-linux-gnu"

%struct._zval_struct = type { %union._zend_value, %union.anon, %union.anon.2 }
%union._zend_value = type { i64 }
%union.anon = type { i32 }
%union.anon.2 = type { i32 }
%struct._zend_refcounted_h = type { i32, %union.anon.3 }
%union.anon.3 = type { i32 }
%struct._xmlNode = type { ptr, i32, ptr, ptr, ptr, ptr, ptr, ptr, ptr, ptr, ptr, ptr, ptr, ptr, i16, i16 }
%struct._php_libxml_node_ptr = type { ptr, i32, ptr }
%struct._zend_object = type { %struct._zend_refcounted_h, i32, ptr, ptr, ptr, [1 x %struct._zval_struct] }
%struct._php_libxml_node_object = type { ptr, ptr, %struct._zend_object }

; Function Attrs: nounwind uwtable
define i32 @php_libxml_decrement_node_ptr(ptr noundef %0) #0 {
  %2 = alloca ptr, align 8
  %3 = alloca i32, align 4
  %4 = alloca ptr, align 8
  store ptr %0, ptr %2, align 8
  store i32 -1, ptr %3, align 4
  %5 = load ptr, ptr %2, align 8
  %6 = icmp ne ptr %5, null
  br i1 %6, label %7, label %37

7:                                                ; preds = %1
  %8 = load ptr, ptr %2, align 8
  %9 = getelementptr inbounds %struct._php_libxml_node_object, ptr %8, i32 0, i32 0
  %10 = load ptr, ptr %9, align 8
  %11 = icmp ne ptr %10, null
  br i1 %11, label %12, label %37

12:                                               ; preds = %7
  %13 = load ptr, ptr %2, align 8
  %14 = getelementptr inbounds %struct._php_libxml_node_object, ptr %13, i32 0, i32 0
  %15 = load ptr, ptr %14, align 8
  store ptr %15, ptr %4, align 8
  %16 = load ptr, ptr %4, align 8
  %17 = getelementptr inbounds %struct._php_libxml_node_ptr, ptr %16, i32 0, i32 1
  %18 = load i32, ptr %17, align 8
  %19 = add nsw i32 %18, -1
  store i32 %19, ptr %17, align 8
  store i32 %19, ptr %3, align 4
  %20 = load i32, ptr %3, align 4
  %21 = icmp eq i32 %20, 0
  br i1 %21, label %22, label %34

22:                                               ; preds = %12
  %23 = load ptr, ptr %4, align 8
  %24 = getelementptr inbounds %struct._php_libxml_node_ptr, ptr %23, i32 0, i32 0
  %25 = load ptr, ptr %24, align 8
  %26 = icmp ne ptr %25, null
  br i1 %26, label %27, label %32

27:                                               ; preds = %22
  %28 = load ptr, ptr %4, align 8
  %29 = getelementptr inbounds %struct._php_libxml_node_ptr, ptr %28, i32 0, i32 0
  %30 = load ptr, ptr %29, align 8
  %31 = getelementptr inbounds %struct._xmlNode, ptr %30, i32 0, i32 0
  store ptr null, ptr %31, align 8
  br label %32

32:                                               ; preds = %27, %22
  %33 = load ptr, ptr %4, align 8
  call void @_efree(ptr noundef %33)
  br label %34

34:                                               ; preds = %32, %12
  %35 = load ptr, ptr %2, align 8
  %36 = getelementptr inbounds %struct._php_libxml_node_object, ptr %35, i32 0, i32 0
  store ptr null, ptr %36, align 8
  br label %37

37:                                               ; preds = %34, %7, %1
  %38 = load i32, ptr %3, align 4
  ret i32 %38
}

; Function Attrs: nounwind uwtable
define internal void @php_libxml_unregister_node(ptr noundef %0) #0 {
  %2 = alloca ptr, align 8
  %3 = alloca ptr, align 8
  %4 = alloca ptr, align 8
  store ptr %0, ptr %2, align 8
  %5 = load ptr, ptr %2, align 8
  %6 = getelementptr inbounds %struct._xmlNode, ptr %5, i32 0, i32 0
  %7 = load ptr, ptr %6, align 8
  store ptr %7, ptr %4, align 8
  %8 = load ptr, ptr %4, align 8
  %9 = icmp ne ptr %8, null
  br i1 %9, label %10, label %42

10:                                               ; preds = %1
  %11 = load ptr, ptr %4, align 8
  %12 = getelementptr inbounds %struct._php_libxml_node_ptr, ptr %11, i32 0, i32 2
  %13 = load ptr, ptr %12, align 8
  store ptr %13, ptr %3, align 8
  %14 = load ptr, ptr %3, align 8
  %15 = icmp ne ptr %14, null
  br i1 %15, label %16, label %21

16:                                               ; preds = %10
  %17 = load ptr, ptr %3, align 8
  %18 = call i32 @php_libxml_decrement_node_ptr(ptr noundef %17)
  %19 = load ptr, ptr %3, align 8
  %20 = call i32 @php_libxml_decrement_doc_ref(ptr noundef %19)
  br label %41

21:                                               ; preds = %10
  %22 = load ptr, ptr %4, align 8
  %23 = getelementptr inbounds %struct._php_libxml_node_ptr, ptr %22, i32 0, i32 0
  %24 = load ptr, ptr %23, align 8
  %25 = icmp ne ptr %24, null
  br i1 %25, label %26, label %38

26:                                               ; preds = %21
  %27 = load ptr, ptr %4, align 8
  %28 = getelementptr inbounds %struct._php_libxml_node_ptr, ptr %27, i32 0, i32 0
  %29 = load ptr, ptr %28, align 8
  %30 = getelementptr inbounds %struct._xmlNode, ptr %29, i32 0, i32 1
  %31 = load i32, ptr %30, align 8
  %32 = icmp ne i32 %31, 9
  br i1 %32, label %33, label %38

33:                                               ; preds = %26
  %34 = load ptr, ptr %4, align 8
  %35 = getelementptr inbounds %struct._php_libxml_node_ptr, ptr %34, i32 0, i32 0
  %36 = load ptr, ptr %35, align 8
  %37 = getelementptr inbounds %struct._xmlNode, ptr %36, i32 0, i32 0
  store ptr null, ptr %37, align 8
  br label %38

38:                                               ; preds = %33, %26, %21
  %39 = load ptr, ptr %4, align 8
  %40 = getelementptr inbounds %struct._php_libxml_node_ptr, ptr %39, i32 0, i32 0
  store ptr null, ptr %40, align 8
  br label %41

41:                                               ; preds = %38, %16
  br label %42

42:                                               ; preds = %41, %1
  ret void
}

; Function Attrs: nounwind uwtable
define void @php_libxml_node_free_resource(ptr noundef %0) #0 {
  %2 = alloca ptr, align 8
  store ptr %0, ptr %2, align 8
  %3 = load ptr, ptr %2, align 8
  %4 = icmp ne ptr %3, null
  br i1 %4, label %6, label %5

5:                                                ; preds = %1
  br label %48

6:                                                ; preds = %1
  %7 = load ptr, ptr %2, align 8
  %8 = getelementptr inbounds %struct._xmlNode, ptr %7, i32 0, i32 1
  %9 = load i32, ptr %8, align 8
  switch i32 %9, label %20 [
    i32 9, label %10
    i32 13, label %10
    i32 5, label %11
  ]

10:                                               ; preds = %6, %6
  br label %48

11:                                               ; preds = %6
  %12 = load ptr, ptr %2, align 8
  call void @php_libxml_unregister_node(ptr noundef %12)
  %13 = load ptr, ptr %2, align 8
  %14 = getelementptr inbounds %struct._xmlNode, ptr %13, i32 0, i32 5
  %15 = load ptr, ptr %14, align 8
  %16 = icmp eq ptr %15, null
  br i1 %16, label %17, label %19

17:                                               ; preds = %11
  %18 = load ptr, ptr %2, align 8
  call void @php_libxml_node_free(ptr noundef %18)
  br label %19

19:                                               ; preds = %17, %11
  br label %48

20:                                               ; preds = %6
  %21 = load ptr, ptr %2, align 8
  %22 = getelementptr inbounds %struct._xmlNode, ptr %21, i32 0, i32 5
  %23 = load ptr, ptr %22, align 8
  %24 = icmp eq ptr %23, null
  br i1 %24, label %30, label %25

25:                                               ; preds = %20
  %26 = load ptr, ptr %2, align 8
  %27 = getelementptr inbounds %struct._xmlNode, ptr %26, i32 0, i32 1
  %28 = load i32, ptr %27, align 8
  %29 = icmp eq i32 %28, 18
  br i1 %29, label %30, label %45

30:                                               ; preds = %25, %20
  %31 = load ptr, ptr %2, align 8
  %32 = getelementptr inbounds %struct._xmlNode, ptr %31, i32 0, i32 3
  %33 = load ptr, ptr %32, align 8
  call void @php_libxml_node_free_list(ptr noundef %33)
  %34 = load ptr, ptr %2, align 8
  %35 = getelementptr inbounds %struct._xmlNode, ptr %34, i32 0, i32 1
  %36 = load i32, ptr %35, align 8
  switch i32 %36, label %38 [
    i32 16, label %37
    i32 14, label %37
    i32 10, label %37
    i32 17, label %37
    i32 2, label %37
    i32 18, label %37
    i32 3, label %37
  ]

37:                                               ; preds = %30, %30, %30, %30, %30, %30, %30
  br label %42

38:                                               ; preds = %30
  %39 = load ptr, ptr %2, align 8
  %40 = getelementptr inbounds %struct._xmlNode, ptr %39, i32 0, i32 11
  %41 = load ptr, ptr %40, align 8
  call void @php_libxml_node_free_list(ptr noundef %41)
  br label %42

42:                                               ; preds = %38, %37
  %43 = load ptr, ptr %2, align 8
  call void @php_libxml_unregister_node(ptr noundef %43)
  %44 = load ptr, ptr %2, align 8
  call void @php_libxml_node_free(ptr noundef %44)
  br label %47

45:                                               ; preds = %25
  %46 = load ptr, ptr %2, align 8
  call void @php_libxml_unregister_node(ptr noundef %46)
  br label %47

47:                                               ; preds = %45, %42
  br label %48

48:                                               ; preds = %47, %19, %10, %5
  ret void
}