; Function Attrs: nounwind uwtable
define void @php_libxml_node_free_resource(ptr noundef %0) local_unnamed_addr #0 {
  %.not = icmp eq ptr %0, null
  br i1 %.not, label %php_libxml_unregister_node.exit30, label %2

2:                                                ; preds = %1
  %3 = getelementptr inbounds i8, ptr %0, i64 8
  %4 = load i32, ptr %3, align 8
  switch i32 %4, label %33 [
    i32 9, label %php_libxml_unregister_node.exit30
    i32 13, label %php_libxml_unregister_node.exit30
    i32 5, label %5
  ]

5:                                                ; preds = %2
  %.val14 = load ptr, ptr %0, align 8
  %.not.i = icmp eq ptr %.val14, null
  br i1 %.not.i, label %php_libxml_unregister_node.exit, label %6

6:                                                ; preds = %5
  %7 = getelementptr inbounds i8, ptr %.val14, i64 16
  %8 = load ptr, ptr %7, align 8
  %.not12.i = icmp eq ptr %8, null
  br i1 %.not12.i, label %22, label %9

9:                                                ; preds = %6
  %10 = load ptr, ptr %8, align 8
  %.not12.i.i = icmp eq ptr %10, null
  br i1 %.not12.i.i, label %php_libxml_decrement_node_ptr.exit.i, label %11

11:                                               ; preds = %9
  %12 = getelementptr inbounds i8, ptr %10, i64 8
  %13 = load i32, ptr %12, align 8
  %14 = add nsw i32 %13, -1
  store i32 %14, ptr %12, align 8
  %15 = icmp eq i32 %14, 0
  br i1 %15, label %16, label %20

16:                                               ; preds = %11
  %17 = load ptr, ptr %10, align 8
  %.not13.i.i = icmp eq ptr %17, null
  br i1 %.not13.i.i, label %19, label %18

18:                                               ; preds = %16
  store ptr null, ptr %17, align 8
  br label %19

19:                                               ; preds = %18, %16
  tail call void @_efree(ptr noundef nonnull %10) #17
  br label %20

20:                                               ; preds = %19, %11
  store ptr null, ptr %8, align 8
  br label %php_libxml_decrement_node_ptr.exit.i

php_libxml_decrement_node_ptr.exit.i:             ; preds = %20, %9
  %21 = tail call i32 @php_libxml_decrement_doc_ref(ptr noundef nonnull %8)
  br label %php_libxml_unregister_node.exit

22:                                               ; preds = %6
  %23 = load ptr, ptr %.val14, align 8
  %.not13.i = icmp eq ptr %23, null
  br i1 %.not13.i, label %28, label %24

24:                                               ; preds = %22
  %25 = getelementptr inbounds i8, ptr %23, i64 8
  %26 = load i32, ptr %25, align 8
  %.not14.i = icmp eq i32 %26, 9
  br i1 %.not14.i, label %28, label %27

27:                                               ; preds = %24
  store ptr null, ptr %23, align 8
  br label %28

28:                                               ; preds = %27, %24, %22
  store ptr null, ptr %.val14, align 8
  br label %php_libxml_unregister_node.exit

php_libxml_unregister_node.exit:                  ; preds = %5, %php_libxml_decrement_node_ptr.exit.i, %28
  %29 = getelementptr inbounds i8, ptr %0, i64 40
  %30 = load ptr, ptr %29, align 8
  %31 = icmp eq ptr %30, null
  br i1 %31, label %32, label %php_libxml_unregister_node.exit30

32:                                               ; preds = %php_libxml_unregister_node.exit
  tail call fastcc void @php_libxml_node_free(ptr noundef nonnull %0)
  br label %php_libxml_unregister_node.exit30

33:                                               ; preds = %2
  %34 = getelementptr inbounds i8, ptr %0, i64 40
  %35 = load ptr, ptr %34, align 8
  %36 = icmp eq ptr %35, null
  %37 = icmp eq i32 %4, 18
  %or.cond = or i1 %37, %36
  br i1 %or.cond, label %38, label %69

38:                                               ; preds = %33
  %39 = getelementptr inbounds i8, ptr %0, i64 24
  %40 = load ptr, ptr %39, align 8
  tail call void @php_libxml_node_free_list(ptr noundef %40)
  %41 = load i32, ptr %3, align 8
  switch i32 %41, label %42 [
    i32 16, label %45
    i32 14, label %45
    i32 10, label %45
    i32 17, label %45
    i32 2, label %45
    i32 18, label %45
    i32 3, label %45
  ]

42:                                               ; preds = %38
  %43 = getelementptr inbounds i8, ptr %0, i64 88
  %44 = load ptr, ptr %43, align 8
  tail call void @php_libxml_node_free_list(ptr noundef %44)
  br label %45

45:                                               ; preds = %38, %38, %38, %38, %38, %38, %38, %42
  %.val13 = load ptr, ptr %0, align 8
  %.not.i15 = icmp eq ptr %.val13, null
  br i1 %.not.i15, label %php_libxml_unregister_node.exit22, label %46

46:                                               ; preds = %45
  %47 = getelementptr inbounds i8, ptr %.val13, i64 16
  %48 = load ptr, ptr %47, align 8
  %.not12.i16 = icmp eq ptr %48, null
  br i1 %.not12.i16, label %62, label %49

49:                                               ; preds = %46
  %50 = load ptr, ptr %48, align 8
  %.not12.i.i17 = icmp eq ptr %50, null
  br i1 %.not12.i.i17, label %php_libxml_decrement_node_ptr.exit.i18, label %51

51:                                               ; preds = %49
  %52 = getelementptr inbounds i8, ptr %50, i64 8
  %53 = load i32, ptr %52, align 8
  %54 = add nsw i32 %53, -1
  store i32 %54, ptr %52, align 8
  %55 = icmp eq i32 %54, 0
  br i1 %55, label %56, label %60

56:                                               ; preds = %51
  %57 = load ptr, ptr %50, align 8
  %.not13.i.i19 = icmp eq ptr %57, null
  br i1 %.not13.i.i19, label %59, label %58

58:                                               ; preds = %56
  store ptr null, ptr %57, align 8
  br label %59

59:                                               ; preds = %58, %56
  tail call void @_efree(ptr noundef nonnull %50) #17
  br label %60

60:                                               ; preds = %59, %51
  store ptr null, ptr %48, align 8
  br label %php_libxml_decrement_node_ptr.exit.i18

php_libxml_decrement_node_ptr.exit.i18:           ; preds = %60, %49
  %61 = tail call i32 @php_libxml_decrement_doc_ref(ptr noundef nonnull %48)
  br label %php_libxml_unregister_node.exit22

62:                                               ; preds = %46
  %63 = load ptr, ptr %.val13, align 8
  %.not13.i20 = icmp eq ptr %63, null
  br i1 %.not13.i20, label %68, label %64

64:                                               ; preds = %62
  %65 = getelementptr inbounds i8, ptr %63, i64 8
  %66 = load i32, ptr %65, align 8
  %.not14.i21 = icmp eq i32 %66, 9
  br i1 %.not14.i21, label %68, label %67

67:                                               ; preds = %64
  store ptr null, ptr %63, align 8
  br label %68

68:                                               ; preds = %67, %64, %62
  store ptr null, ptr %.val13, align 8
  br label %php_libxml_unregister_node.exit22

php_libxml_unregister_node.exit22:                ; preds = %45, %php_libxml_decrement_node_ptr.exit.i18, %68
  tail call fastcc void @php_libxml_node_free(ptr noundef nonnull %0)
  br label %php_libxml_unregister_node.exit30

69:                                               ; preds = %33
  %.val = load ptr, ptr %0, align 8
  %.not.i23 = icmp eq ptr %.val, null
  br i1 %.not.i23, label %php_libxml_unregister_node.exit30, label %70

70:                                               ; preds = %69
  %71 = getelementptr inbounds i8, ptr %.val, i64 16
  %72 = load ptr, ptr %71, align 8
  %.not12.i24 = icmp eq ptr %72, null
  br i1 %.not12.i24, label %86, label %73

73:                                               ; preds = %70
  %74 = load ptr, ptr %72, align 8
  %.not12.i.i25 = icmp eq ptr %74, null
  br i1 %.not12.i.i25, label %php_libxml_decrement_node_ptr.exit.i26, label %75

75:                                               ; preds = %73
  %76 = getelementptr inbounds i8, ptr %74, i64 8
  %77 = load i32, ptr %76, align 8
  %78 = add nsw i32 %77, -1
  store i32 %78, ptr %76, align 8
  %79 = icmp eq i32 %78, 0
  br i1 %79, label %80, label %84

80:                                               ; preds = %75
  %81 = load ptr, ptr %74, align 8
  %.not13.i.i27 = icmp eq ptr %81, null
  br i1 %.not13.i.i27, label %83, label %82

82:                                               ; preds = %80
  store ptr null, ptr %81, align 8
  br label %83

83:                                               ; preds = %82, %80
  tail call void @_efree(ptr noundef nonnull %74) #17
  br label %84

84:                                               ; preds = %83, %75
  store ptr null, ptr %72, align 8
  br label %php_libxml_decrement_node_ptr.exit.i26

php_libxml_decrement_node_ptr.exit.i26:           ; preds = %84, %73
  %85 = tail call i32 @php_libxml_decrement_doc_ref(ptr noundef nonnull %72)
  br label %php_libxml_unregister_node.exit30

86:                                               ; preds = %70
  %87 = load ptr, ptr %.val, align 8
  %.not13.i28 = icmp eq ptr %87, null
  br i1 %.not13.i28, label %92, label %88

88:                                               ; preds = %86
  %89 = getelementptr inbounds i8, ptr %87, i64 8
  %90 = load i32, ptr %89, align 8
  %.not14.i29 = icmp eq i32 %90, 9
  br i1 %.not14.i29, label %92, label %91

91:                                               ; preds = %88
  store ptr null, ptr %87, align 8
  br label %92

92:                                               ; preds = %91, %88, %86
  store ptr null, ptr %.val, align 8
  br label %php_libxml_unregister_node.exit30

php_libxml_unregister_node.exit30:                ; preds = %92, %php_libxml_decrement_node_ptr.exit.i26, %69, %php_libxml_unregister_node.exit22, %php_libxml_unregister_node.exit, %32, %2, %2, %1
  ret void
}